Certificate:
    Data:
        Version: 3 (0x2)
        Serial Number:
            85:28:cf:51:09:d3:ec:0c:78:a6:09:ce:77:4c:53:bc
        Signature Algorithm: sha256WithRSAEncryption
        Issuer: CN=Easy-RSA CA
        Validity
            Not Before: Jan 27 04:13:20 2021 GMT
            Not After : May  2 04:13:20 2023 GMT
        Subject: CN=34.70.248.11
        Subject Public Key Info:
            Public Key Algorithm: rsaEncryption
                RSA Public-Key: (2048 bit)
                Modulus:
                    00:b5:e7:1a:29:be:8f:a8:c7:05:25:79:74:0b:99:
                    eb:72:44:d2:f3:b8:5b:d4:a0:80:4f:49:a7:5c:5f:
                    bd:2f:99:6e:d3:64:41:da:e0:b3:e4:12:db:70:ac:
                    87:47:c1:e8:e8:b5:fe:64:27:01:96:bc:3d:ea:10:
                    96:05:8c:74:9c:10:76:3c:92:bb:61:e8:70:9e:13:
                    e8:51:74:32:ba:f4:22:d4:ac:80:11:da:4e:79:11:
                    79:e5:8e:41:2a:4b:22:1e:7a:9a:7e:53:7f:e3:d7:
                    e8:0a:a3:c5:06:ae:8f:91:f3:94:9e:62:05:10:12:
                    bf:06:c8:8c:a4:69:f2:38:94:1d:93:42:82:f4:73:
                    b8:9a:a8:c5:c4:56:59:41:c3:b8:2f:58:9a:60:9e:
                    32:2c:8c:a7:2e:1b:e0:e4:0b:25:cb:8d:cb:8e:26:
                    42:18:63:68:77:64:6d:89:bf:e5:b8:66:ae:2d:b6:
                    f8:ed:e3:42:c8:65:63:9a:6e:2d:e8:4f:8c:c9:35:
                    7f:df:06:db:12:3c:de:07:5d:bf:79:d3:47:6f:88:
                    8f:36:0a:56:38:bb:9b:21:3b:d9:aa:70:4c:f0:61:
                    75:b1:0e:35:76:89:05:71:e9:38:79:40:77:86:8b:
                    0e:ba:d1:54:96:6b:ce:32:fd:f9:fa:1b:73:eb:6d:
                    c1:53
                Exponent: 65537 (0x10001)
        X509v3 extensions:
            X509v3 Basic Constraints: 
                CA:FALSE
            X509v3 Subject Key Identifier: 
                9F:1E:F5:C2:27:E9:7D:8D:9B:CB:64:3F:2A:F7:74:B9:7A:62:B8:41
            X509v3 Authority Key Identifier: 
                keyid:CD:64:0F:1E:0B:80:71:58:F6:2A:38:5A:F0:35:67:C1:47:65:A2:80
                DirName:/CN=Easy-RSA CA
                serial:7C:28:28:56:19:7F:6D:D7:10:87:E8:FC:70:FE:E6:DB:0B:2A:4E:D0

            X509v3 Extended Key Usage: 
                TLS Web Server Authentication
            X509v3 Key Usage: 
                Digital Signature, Key Encipherment
            X509v3 Subject Alternative Name: 
                IP Address:34.70.248.11
    Signature Algorithm: sha256WithRSAEncryption
         00:63:77:a6:5d:5a:57:cd:7f:ff:98:65:52:af:2c:10:6a:a2:
         43:86:e5:5c:96:26:f7:66:0d:0d:b9:bb:55:62:f6:dd:1f:dc:
         4b:96:bd:52:be:07:0b:93:8c:a3:78:57:bb:c1:e9:dd:49:89:
         db:7d:23:66:c8:a7:8d:b4:3c:57:bd:0c:ff:e6:55:72:db:e6:
         0f:47:de:3b:70:2d:7e:48:b7:e0:c3:98:ac:9b:64:af:6a:07:
         c3:46:c7:84:86:9b:2b:71:e7:6a:40:c2:c2:42:6a:01:9b:52:
         eb:69:c9:22:02:81:14:9d:78:fc:08:9d:d9:64:f3:b0:82:97:
         68:1d:0e:4d:bd:d9:e4:c4:8b:f7:cc:dc:15:82:e7:26:4d:56:
         d8:8a:aa:ff:dd:b0:b3:85:3c:0b:e9:f1:2d:c6:37:f6:85:5b:
         98:8d:6f:37:a4:03:da:31:ce:d4:f0:c5:88:2f:d1:bb:b5:4a:
         a7:07:9d:38:68:4d:ab:e6:26:28:f5:4e:2a:4a:2c:04:71:5e:
         99:51:55:e6:1c:c3:7d:ad:69:b5:e4:15:44:aa:ca:e9:d2:30:
         de:45:0b:0b:ba:1c:59:78:4f:a7:66:ac:71:f8:93:dc:41:d4:
         cc:78:f7:97:fa:61:f1:c9:3c:21:f7:57:b2:58:30:db:c3:e6:
         e7:3e:76:dc
-----BEGIN CERTIFICATE-----
MIIDbDCCAlSgAwIBAgIRAIUoz1EJ0+wMeKYJzndMU7wwDQYJKoZIhvcNAQELBQAw
FjEUMBIGA1UEAwwLRWFzeS1SU0EgQ0EwHhcNMjEwMTI3MDQxMzIwWhcNMjMwNTAy
MDQxMzIwWjAXMRUwEwYDVQQDDAwzNC43MC4yNDguMTEwggEiMA0GCSqGSIb3DQEB
AQUAA4IBDwAwggEKAoIBAQC15xopvo+oxwUleXQLmetyRNLzuFvUoIBPSadcX70v
mW7TZEHa4LPkEttwrIdHwejotf5kJwGWvD3qEJYFjHScEHY8krth6HCeE+hRdDK6
9CLUrIAR2k55EXnljkEqSyIeepp+U3/j1+gKo8UGro+R85SeYgUQEr8GyIykafI4
lB2TQoL0c7iaqMXEVllBw7gvWJpgnjIsjKcuG+DkCyXLjcuOJkIYY2h3ZG2Jv+W4
Zq4ttvjt40LIZWOabi3oT4zJNX/fBtsSPN4HXb9500dviI82ClY4u5shO9mqcEzw
YXWxDjV2iQVx6Th5QHeGiw660VSWa84y/fn6G3PrbcFTAgMBAAGjgbMwgbAwCQYD
VR0TBAIwADAdBgNVHQ4EFgQUnx71wifpfY2by2Q/Kvd0uXpiuEEwUQYDVR0jBEow
SIAUzWQPHguAcVj2Kjha8DVnwUdlooChGqQYMBYxFDASBgNVBAMMC0Vhc3ktUlNB
IENBghR8KChWGX9t1xCH6Pxw/ubbCypO0DATBgNVHSUEDDAKBggrBgEFBQcDATAL
BgNVHQ8EBAMCBaAwDwYDVR0RBAgwBocEIkb4CzANBgkqhkiG9w0BAQsFAAOCAQEA
AGN3pl1aV81//5hlUq8sEGqiQ4blXJYm92YNDbm7VWL23R/cS5a9Ur4HC5OMo3hX
u8Hp3UmJ230jZsinjbQ8V70M/+ZVctvmD0feO3Atfki34MOYrJtkr2oHw0bHhIab
K3HnakDCwkJqAZtS62nJIgKBFJ14/Aid2WTzsIKXaB0OTb3Z5MSL98zcFYLnJk1W
2Iqq/92ws4U8C+nxLcY39oVbmI1vN6QD2jHO1PDFiC/Ru7VKpwedOGhNq+YmKPVO
KkosBHFemVFV5hzDfa1pteQVRKrK6dIw3kULC7ocWXhPp2ascfiT3EHUzHj3l/ph
8ck8IfdXslgw28Pm5z523A==
-----END CERTIFICATE-----
